; Function Attrs: mustprogress uwtable
define hidden void @_ZN6Assimp13XFileExporter9writePathERK8aiString(ptr noundef nonnull align 8 dereferenceable(560) %this, ptr noundef nonnull align 4 dereferenceable(1028) %path) local_unnamed_addr #0 align 2 personality ptr @__gxx_personality_v0 {
entry:
  %str = alloca %"class.std::__cxx11::basic_string", align 8
  %ref.tmp = alloca %"class.std::allocator.0", align 1
  %data.i = getelementptr inbounds i8, ptr %path, i64 4
  call void @_ZNSaIcEC1Ev(ptr noundef nonnull align 1 dereferenceable(1) %ref.tmp) #11
  %call.i2 = invoke noundef ptr @_ZNSt7__cxx1112basic_stringIcSt11char_traitsIcESaIcEE13_M_local_dataEv(ptr noundef nonnull align 8 dereferenceable(32) %str)
          to label %call.i.noexc unwind label %lpad

call.i.noexc:                                     ; preds = %entry
  invoke void @_ZNSt7__cxx1112basic_stringIcSt11char_traitsIcESaIcEE12_Alloc_hiderC1EPcRKS3_(ptr noundef nonnull align 8 dereferenceable(8) %str, ptr noundef %call.i2, ptr noundef nonnull align 1 dereferenceable(1) %ref.tmp)
          to label %.noexc unwind label %lpad

.noexc:                                           ; preds = %call.i.noexc
  %call.i.i = call noundef i64 @strlen(ptr noundef nonnull dereferenceable(1) %data.i) #11
  %add.ptr.i = getelementptr inbounds i8, ptr %data.i, i64 %call.i.i
  invoke void @_ZNSt7__cxx1112basic_stringIcSt11char_traitsIcESaIcEE12_M_constructIPKcEEvT_S8_St20forward_iterator_tag(ptr noundef nonnull align 8 dereferenceable(32) %str, ptr noundef nonnull %data.i, ptr noundef nonnull %add.ptr.i)
          to label %invoke.cont unwind label %lpad.i

lpad.i:                                           ; preds = %.noexc
  %0 = landingpad { ptr, i32 }
          cleanup
  call void @_ZNSaIcED2Ev(ptr noundef nonnull align 1 dereferenceable(1) %str) #11
  br label %lpad.body

invoke.cont:                                      ; preds = %.noexc
  call void @_ZNSaIcED1Ev(ptr noundef nonnull align 1 dereferenceable(1) %ref.tmp) #11
  invoke void @_ZN6Assimp12BaseImporter22ConvertUTF8toISO8859_1ERNSt7__cxx1112basic_stringIcSt11char_traitsIcESaIcEEE(ptr noundef nonnull align 8 dereferenceable(32) %str)
          to label %while.cond unwind label %lpad2.loopexit.split-lp.loopexit.split-lp

while.cond:                                       ; preds = %invoke.cont, %while.body
  %call4 = call noundef i64 @_ZNKSt7__cxx1112basic_stringIcSt11char_traitsIcESaIcEE4findEPKcm(ptr noundef nonnull align 8 dereferenceable(32) %str, ptr noundef nonnull @.str.100, i64 noundef 0) #11
  %cmp.not = icmp eq i64 %call4, -1
  br i1 %cmp.not, label %while.cond8, label %while.body

while.body:                                       ; preds = %while.cond
  %call5 = call noundef i64 @_ZNKSt7__cxx1112basic_stringIcSt11char_traitsIcESaIcEE4findEPKcm(ptr noundef nonnull align 8 dereferenceable(32) %str, ptr noundef nonnull @.str.100, i64 noundef 0) #11
  %call7 = invoke noundef nonnull align 8 dereferenceable(32) ptr @_ZNSt7__cxx1112basic_stringIcSt11char_traitsIcESaIcEE7replaceEmmPKc(ptr noundef nonnull align 8 dereferenceable(32) %str, i64 noundef %call5, i64 noundef 2, ptr noundef nonnull @.str.101)
          to label %while.cond unwind label %lpad2.loopexit.split-lp.loopexit, !llvm.loop !17

lpad:                                             ; preds = %call.i.noexc, %entry
  %1 = landingpad { ptr, i32 }
          cleanup
  br label %lpad.body

lpad.body:                                        ; preds = %lpad.i, %lpad
  %eh.lpad-body = phi { ptr, i32 } [ %1, %lpad ], [ %0, %lpad.i ]
  call void @_ZNSaIcED1Ev(ptr noundef nonnull align 1 dereferenceable(1) %ref.tmp) #11
  br label %eh.resume

lpad2.loopexit:                                   ; preds = %while.body11
  %lpad.loopexit = landingpad { ptr, i32 }
          cleanup
  br label %lpad2

lpad2.loopexit.split-lp.loopexit:                 ; preds = %while.body
  %lpad.loopexit3 = landingpad { ptr, i32 }
          cleanup
  br label %lpad2

lpad2.loopexit.split-lp.loopexit.split-lp:        ; preds = %while.end15, %invoke.cont
  %lpad.loopexit.split-lp4 = landingpad { ptr, i32 }
          cleanup
  br label %lpad2

lpad2:                                            ; preds = %lpad2.loopexit.split-lp.loopexit, %lpad2.loopexit.split-lp.loopexit.split-lp, %lpad2.loopexit
  %lpad.phi = phi { ptr, i32 } [ %lpad.loopexit, %lpad2.loopexit ], [ %lpad.loopexit3, %lpad2.loopexit.split-lp.loopexit ], [ %lpad.loopexit.split-lp4, %lpad2.loopexit.split-lp.loopexit.split-lp ]
  call void @_ZNSt7__cxx1112basic_stringIcSt11char_traitsIcESaIcEED1Ev(ptr noundef nonnull align 8 dereferenceable(32) %str) #11
  br label %eh.resume

while.cond8:                                      ; preds = %while.cond, %while.body11
  %call9 = call noundef i64 @_ZNKSt7__cxx1112basic_stringIcSt11char_traitsIcESaIcEE4findEcm(ptr noundef nonnull align 8 dereferenceable(32) %str, i8 noundef signext 92, i64 noundef 0) #11
  %cmp10.not = icmp eq i64 %call9, -1
  br i1 %cmp10.not, label %while.end15, label %while.body11

while.body11:                                     ; preds = %while.cond8
  %call12 = call noundef i64 @_ZNKSt7__cxx1112basic_stringIcSt11char_traitsIcESaIcEE4findEcm(ptr noundef nonnull align 8 dereferenceable(32) %str, i8 noundef signext 92, i64 noundef 0) #11
  %call14 = invoke noundef nonnull align 8 dereferenceable(32) ptr @_ZNSt7__cxx1112basic_stringIcSt11char_traitsIcESaIcEE7replaceEmmPKc(ptr noundef nonnull align 8 dereferenceable(32) %str, i64 noundef %call12, i64 noundef 1, ptr noundef nonnull @.str.102)
          to label %while.cond8 unwind label %lpad2.loopexit, !llvm.loop !18

while.end15:                                      ; preds = %while.cond8
  %add.ptr = getelementptr inbounds i8, ptr %this, i64 24
  %call17 = invoke noundef nonnull align 8 dereferenceable(8) ptr @_ZStlsIcSt11char_traitsIcESaIcEERSt13basic_ostreamIT_T0_ES7_RKNSt7__cxx1112basic_stringIS4_S5_T1_EE(ptr noundef nonnull align 8 dereferenceable(8) %add.ptr, ptr noundef nonnull align 8 dereferenceable(32) %str)
          to label %invoke.cont16 unwind label %lpad2.loopexit.split-lp.loopexit.split-lp

invoke.cont16:                                    ; preds = %while.end15
  call void @_ZNSt7__cxx1112basic_stringIcSt11char_traitsIcESaIcEED1Ev(ptr noundef nonnull align 8 dereferenceable(32) %str) #11
  ret void

eh.resume:                                        ; preds = %lpad2, %lpad.body
  %.pn = phi { ptr, i32 } [ %lpad.phi, %lpad2 ], [ %eh.lpad-body, %lpad.body ]
  resume { ptr, i32 } %.pn
}